; Function Attrs: mustprogress uwtable
define hidden void @_ZNK4cvc58internal6EnvObj15extendedRewriteENS0_12NodeTemplateILb0EEEb(ptr dead_on_unwind noalias writable sret(%"class.cvc5::internal::NodeTemplate") align 8 %0, ptr noundef nonnull readonly align 8 captures(none) dereferenceable(16) %1, ptr noundef readonly captures(none) %2, i1 noundef zeroext %3) local_unnamed_addr #4 align 2 personality ptr @__gxx_personality_v0 {
  %5 = alloca %"class.cvc5::internal::NodeTemplate.273", align 8
  %6 = getelementptr inbounds nuw i8, ptr %1, i64 8
  %7 = load ptr, ptr %6, align 8, !tbaa !10
  %8 = tail call noundef ptr @_ZN4cvc58internal3Env11getRewriterEv(ptr noundef nonnull align 8 dereferenceable(696) %7)
  %9 = load ptr, ptr %2, align 8, !tbaa !12
  store ptr %9, ptr %5, align 8, !tbaa !12
  call void @_ZN4cvc58internal6theory8Rewriter15extendedRewriteENS0_12NodeTemplateILb0EEEb(ptr dead_on_unwind writable sret(%"class.cvc5::internal::NodeTemplate") align 8 %0, ptr noundef nonnull align 8 dereferenceable(216) %8, ptr noundef nonnull %5, i1 noundef zeroext %3)
  ret void
}